target datalayout = "e-m:e-p270:32:32-p271:32:32-p272:64:64-i64:64-i128:128-f80:128-n8:16:32:64-S128"
target triple = "x86_64-pc-linux-gnu"

%struct.RBasic = type { i64, i64 }
%struct.RString = type { %struct.RBasic, i64, %union.anon.33 }
%union.anon.33 = type { %struct.anon.34 }
%struct.anon.34 = type { ptr, %union.anon.35 }
%union.anon.35 = type { i64 }
%struct.anon.36 = type { [1 x i8] }

@rb_eArgError = external global i64, align 8
@.str.242 = private unnamed_addr constant [29 x i8] c"invalid resource name: % li\0B\00", align 1

; Function Attrs: inlinehint nounwind sspstrong willreturn memory(read) uwtable
define internal i64 @RB_FL_TEST_RAW(i64 noundef %0, i64 noundef %1) #5 {
  %3 = alloca i64, align 8
  %4 = alloca i64, align 8
  store i64 %0, ptr %3, align 8, !tbaa !35
  store i64 %1, ptr %4, align 8, !tbaa !35
  %5 = load i64, ptr %3, align 8, !tbaa !35
  %6 = inttoptr i64 %5 to ptr
  %7 = getelementptr inbounds nuw %struct.RBasic, ptr %6, i32 0, i32 0
  %8 = load i64, ptr %7, align 8, !tbaa !215
  %9 = load i64, ptr %4, align 8, !tbaa !35
  %10 = and i64 %8, %9
  ret i64 %10
}

; Function Attrs: inlinehint nounwind sspstrong willreturn memory(read) uwtable
define internal zeroext i1 @RB_FL_ANY_RAW(i64 noundef %0, i64 noundef %1) #5 {
  %3 = alloca i64, align 8
  %4 = alloca i64, align 8
  store i64 %0, ptr %3, align 8, !tbaa !35
  store i64 %1, ptr %4, align 8, !tbaa !35
  %5 = load i64, ptr %3, align 8, !tbaa !35
  %6 = load i64, ptr %4, align 8, !tbaa !35
  %7 = call i64 @RB_FL_TEST_RAW(i64 noundef %5, i64 noundef %6) #29
  %8 = icmp ne i64 %7, 0
  ret i1 %8
}

; Function Attrs: inlinehint nounwind sspstrong willreturn memory(none) uwtable
define internal zeroext i1 @RB_IMMEDIATE_P(i64 noundef %0) #4 {
  %2 = alloca i64, align 8
  store i64 %0, ptr %2, align 8, !tbaa !35
  %3 = load i64, ptr %2, align 8, !tbaa !35
  %4 = and i64 %3, 7
  %5 = icmp ne i64 %4, 0
  ret i1 %5
}

; Function Attrs: inlinehint nounwind sspstrong willreturn memory(read, argmem: readwrite) uwtable
define internal void @rbimpl_rstring_getmem(ptr dead_on_unwind noalias writable sret(%struct.RString) align 8 %0, i64 noundef %1) #21 {
  %3 = alloca i64, align 8
  store i64 %1, ptr %3, align 8, !tbaa !35
  %4 = load i64, ptr %3, align 8, !tbaa !35
  %5 = call zeroext i1 @RB_FL_ANY_RAW(i64 noundef %4, i64 noundef 8192) #29
  br i1 %5, label %6, label %9

6:                                                ; preds = %2
  %7 = load i64, ptr %3, align 8, !tbaa !35
  %8 = inttoptr i64 %7 to ptr
  call void @llvm.memcpy.p0.p0.i64(ptr align 8 %0, ptr align 8 %8, i64 40, i1 false), !tbaa.struct !274
  br label %20

9:                                                ; preds = %2
  %10 = load i64, ptr %3, align 8, !tbaa !35
  %11 = call i64 @RSTRING_LEN(i64 noundef %10) #29
  %12 = getelementptr inbounds nuw %struct.RString, ptr %0, i32 0, i32 1
  store i64 %11, ptr %12, align 8, !tbaa !266
  %13 = load i64, ptr %3, align 8, !tbaa !35
  %14 = inttoptr i64 %13 to ptr
  %15 = getelementptr inbounds nuw %struct.RString, ptr %14, i32 0, i32 2
  %16 = getelementptr inbounds nuw %struct.anon.36, ptr %15, i32 0, i32 0
  %17 = getelementptr inbounds [1 x i8], ptr %16, i64 0, i64 0
  %18 = getelementptr inbounds nuw %struct.RString, ptr %0, i32 0, i32 2
  %19 = getelementptr inbounds nuw %struct.anon.34, ptr %18, i32 0, i32 0
  store ptr %17, ptr %19, align 8, !tbaa !66
  br label %20

20:                                               ; preds = %9, %6
  ret void
}

; Function Attrs: inlinehint nounwind sspstrong willreturn memory(none) uwtable
define internal zeroext i1 @RB_FLONUM_P(i64 noundef %0) #4 {
  %2 = alloca i64, align 8
  store i64 %0, ptr %2, align 8, !tbaa !35
  %3 = load i64, ptr %2, align 8, !tbaa !35
  %4 = and i64 %3, 3
  %5 = icmp eq i64 %4, 2
  ret i1 %5
}

; Function Attrs: inlinehint nounwind sspstrong willreturn memory(none) uwtable
define internal zeroext i1 @RB_STATIC_SYM_P(i64 noundef %0) #4 {
  %2 = alloca i64, align 8
  %3 = alloca i64, align 8
  store i64 %0, ptr %2, align 8, !tbaa !35
  call void @llvm.lifetime.start.p0(i64 8, ptr %3) #27
  store i64 255, ptr %3, align 8, !tbaa !35
  %4 = load i64, ptr %2, align 8, !tbaa !35
  %5 = and i64 %4, 255
  %6 = icmp eq i64 %5, 12
  call void @llvm.lifetime.end.p0(i64 8, ptr %3) #27
  ret i1 %6
}

; Function Attrs: inlinehint nounwind sspstrong willreturn memory(none) uwtable
define internal zeroext i1 @RB_FIXNUM_P(i64 noundef %0) #4 {
  %2 = alloca i64, align 8
  store i64 %0, ptr %2, align 8, !tbaa !35
  %3 = load i64, ptr %2, align 8, !tbaa !35
  %4 = and i64 %3, 1
  %5 = icmp ne i64 %4, 0
  ret i1 %5
}

; Function Attrs: inlinehint nounwind sspstrong willreturn memory(read) uwtable
define internal i32 @RB_BUILTIN_TYPE(i64 noundef %0) #5 {
  %2 = alloca i64, align 8
  %3 = alloca i64, align 8
  store i64 %0, ptr %2, align 8, !tbaa !35
  call void @llvm.lifetime.start.p0(i64 8, ptr %3) #27
  %4 = load i64, ptr %2, align 8, !tbaa !35
  %5 = inttoptr i64 %4 to ptr
  %6 = getelementptr inbounds nuw %struct.RBasic, ptr %5, i32 0, i32 0
  %7 = load i64, ptr %6, align 8, !tbaa !215
  %8 = and i64 %7, 31
  store i64 %8, ptr %3, align 8, !tbaa !35
  %9 = load i64, ptr %3, align 8, !tbaa !35
  %10 = trunc i64 %9 to i32
  call void @llvm.lifetime.end.p0(i64 8, ptr %3) #27
  ret i32 %10
}

; Function Attrs: inlinehint nounwind sspstrong willreturn memory(none) uwtable
define internal zeroext i1 @RB_SPECIAL_CONST_P(i64 noundef %0) #4 {
  %2 = alloca i64, align 8
  store i64 %0, ptr %2, align 8, !tbaa !35
  %3 = load i64, ptr %2, align 8, !tbaa !35
  %4 = icmp eq i64 %3, 0
  br i1 %4, label %8, label %5

5:                                                ; preds = %1
  %6 = load i64, ptr %2, align 8, !tbaa !35
  %7 = call zeroext i1 @RB_IMMEDIATE_P(i64 noundef %6) #28
  br label %8

8:                                                ; preds = %5, %1
  %9 = phi i1 [ true, %1 ], [ %7, %5 ]
  ret i1 %9
}

; Function Attrs: nounwind sspstrong uwtable
define internal i32 @rlimit_type_by_hname(ptr noundef %0, i64 noundef %1) #0 {
  %3 = alloca ptr, align 8
  %4 = alloca i64, align 8
  store ptr %0, ptr %3, align 8, !tbaa !64
  store i64 %1, ptr %4, align 8, !tbaa !35
  %5 = load ptr, ptr %3, align 8, !tbaa !64
  %6 = load i64, ptr %4, align 8, !tbaa !35
  %7 = call i32 @rlimit_resource_name2int(ptr noundef %5, i64 noundef %6, i32 noundef 0)
  ret i32 %7
}

; Function Attrs: inlinehint nounwind sspstrong uwtable
define internal i32 @rb_num2int_inline(i64 noundef %0) #1 {
  %2 = alloca i64, align 8
  %3 = alloca i64, align 8
  store i64 %0, ptr %2, align 8, !tbaa !35
  call void @llvm.lifetime.start.p0(i64 8, ptr %3) #27
  %4 = load i64, ptr %2, align 8, !tbaa !35
  %5 = call zeroext i1 @RB_FIXNUM_P(i64 noundef %4) #28
  br i1 %5, label %6, label %9

6:                                                ; preds = %1
  %7 = load i64, ptr %2, align 8, !tbaa !35
  %8 = call i64 @rb_fix2int(i64 noundef %7)
  store i64 %8, ptr %3, align 8, !tbaa !35
  br label %12

9:                                                ; preds = %1
  %10 = load i64, ptr %2, align 8, !tbaa !35
  %11 = call i64 @rb_num2int(i64 noundef %10)
  store i64 %11, ptr %3, align 8, !tbaa !35
  br label %12

12:                                               ; preds = %9, %6
  %13 = load i64, ptr %3, align 8, !tbaa !35
  %14 = trunc i64 %13 to i32
  call void @llvm.lifetime.end.p0(i64 8, ptr %3) #27
  ret i32 %14
}

; Function Attrs: inlinehint nounwind sspstrong willreturn memory(none) uwtable
define internal zeroext i1 @RB_NIL_P(i64 noundef %0) #4 {
  %2 = alloca i64, align 8
  store i64 %0, ptr %2, align 8, !tbaa !35
  %3 = load i64, ptr %2, align 8, !tbaa !35
  %4 = icmp eq i64 %3, 4
  ret i1 %4
}

; Function Attrs: inlinehint nounwind sspstrong willreturn memory(read) uwtable
define internal i64 @RSTRING_LEN(i64 noundef %0) #5 {
  %2 = alloca i64, align 8
  store i64 %0, ptr %2, align 8, !tbaa !35
  %3 = load i64, ptr %2, align 8, !tbaa !35
  %4 = inttoptr i64 %3 to ptr
  %5 = getelementptr inbounds nuw %struct.RString, ptr %4, i32 0, i32 1
  %6 = load i64, ptr %5, align 8, !tbaa !266
  ret i64 %6
}

; Function Attrs: inlinehint nounwind sspstrong uwtable
define internal ptr @RSTRING_PTR(i64 noundef %0) #1 {
  %2 = alloca i64, align 8
  %3 = alloca ptr, align 8
  %4 = alloca %struct.RString, align 8
  store i64 %0, ptr %2, align 8, !tbaa !35
  call void @llvm.lifetime.start.p0(i64 8, ptr %3) #27
  %5 = load i64, ptr %2, align 8, !tbaa !35
  call void @rbimpl_rstring_getmem(ptr dead_on_unwind writable sret(%struct.RString) align 8 %4, i64 noundef %5) #33
  %6 = getelementptr inbounds nuw %struct.RString, ptr %4, i32 0, i32 2
  %7 = getelementptr inbounds nuw %struct.anon.34, ptr %6, i32 0, i32 0
  %8 = load ptr, ptr %7, align 8, !tbaa !66
  store ptr %8, ptr %3, align 8, !tbaa !64
  %9 = load ptr, ptr %3, align 8, !tbaa !64
  call void @llvm.lifetime.end.p0(i64 8, ptr %3) #27
  ret ptr %9
}

; Function Attrs: inlinehint nounwind sspstrong willreturn memory(read) uwtable
define internal i32 @rb_type(i64 noundef %0) #5 {
  %2 = alloca i32, align 4
  %3 = alloca i64, align 8
  store i64 %0, ptr %3, align 8, !tbaa !35
  %4 = load i64, ptr %3, align 8, !tbaa !35
  %5 = call zeroext i1 @RB_SPECIAL_CONST_P(i64 noundef %4) #28
  br i1 %5, label %9, label %6

6:                                                ; preds = %1
  %7 = load i64, ptr %3, align 8, !tbaa !35
  %8 = call i32 @RB_BUILTIN_TYPE(i64 noundef %7) #29
  store i32 %8, ptr %2, align 4
  br label %36

9:                                                ; preds = %1
  %10 = load i64, ptr %3, align 8, !tbaa !35
  %11 = icmp eq i64 %10, 0
  br i1 %11, label %12, label %13

12:                                               ; preds = %9
  store i32 19, ptr %2, align 4
  br label %36

13:                                               ; preds = %9
  %14 = load i64, ptr %3, align 8, !tbaa !35
  %15 = icmp eq i64 %14, 4
  br i1 %15, label %16, label %17

16:                                               ; preds = %13
  store i32 17, ptr %2, align 4
  br label %36

17:                                               ; preds = %13
  %18 = load i64, ptr %3, align 8, !tbaa !35
  %19 = icmp eq i64 %18, 20
  br i1 %19, label %20, label %21

20:                                               ; preds = %17
  store i32 18, ptr %2, align 4
  br label %36

21:                                               ; preds = %17
  %22 = load i64, ptr %3, align 8, !tbaa !35
  %23 = icmp eq i64 %22, 36
  br i1 %23, label %24, label %25

24:                                               ; preds = %21
  store i32 22, ptr %2, align 4
  br label %36

25:                                               ; preds = %21
  %26 = load i64, ptr %3, align 8, !tbaa !35
  %27 = call zeroext i1 @RB_FIXNUM_P(i64 noundef %26) #28
  br i1 %27, label %28, label %29

28:                                               ; preds = %25
  store i32 21, ptr %2, align 4
  br label %36

29:                                               ; preds = %25
  %30 = load i64, ptr %3, align 8, !tbaa !35
  %31 = call zeroext i1 @RB_STATIC_SYM_P(i64 noundef %30) #28
  br i1 %31, label %32, label %33

32:                                               ; preds = %29
  store i32 20, ptr %2, align 4
  br label %36

33:                                               ; preds = %29
  %34 = load i64, ptr %3, align 8, !tbaa !35
  %35 = call zeroext i1 @RB_FLONUM_P(i64 noundef %34) #28
  call void @llvm.assume(i1 %35)
  store i32 4, ptr %2, align 4
  br label %36

36:                                               ; preds = %33, %32, %28, %24, %20, %16, %12, %6
  %37 = load i32, ptr %2, align 4
  ret i32 %37
}

; Function Attrs: nounwind sspstrong uwtable
define internal i32 @rlimit_resource_type(i64 noundef %0) #0 {
  %2 = alloca i32, align 4
  %3 = alloca i64, align 8
  %4 = alloca ptr, align 8
  %5 = alloca i64, align 8
  %6 = alloca i64, align 8
  %7 = alloca i32, align 4
  %8 = alloca i32, align 4
  store i64 %0, ptr %3, align 8, !tbaa !35
  call void @llvm.lifetime.start.p0(i64 8, ptr %4) #27
  call void @llvm.lifetime.start.p0(i64 8, ptr %5) #27
  call void @llvm.lifetime.start.p0(i64 8, ptr %6) #27
  call void @llvm.lifetime.start.p0(i64 4, ptr %7) #27
  %9 = load i64, ptr %3, align 8, !tbaa !35
  %10 = call i32 @rb_type(i64 noundef %9) #29
  switch i32 %10, label %18 [
    i32 20, label %11
    i32 5, label %25
    i32 21, label %30
    i32 10, label %30
  ]

11:                                               ; preds = %1
  %12 = load i64, ptr %3, align 8, !tbaa !35
  %13 = call i64 @rb_sym2str(i64 noundef %12)
  store i64 %13, ptr %6, align 8, !tbaa !35
  %14 = load i64, ptr %6, align 8, !tbaa !35
  %15 = call ptr @RSTRING_PTR(i64 noundef %14)
  store ptr %15, ptr %4, align 8, !tbaa !64
  %16 = load i64, ptr %6, align 8, !tbaa !35
  %17 = call i64 @RSTRING_LEN(i64 noundef %16) #29
  store i64 %17, ptr %5, align 8, !tbaa !35
  br label %33

18:                                               ; preds = %1
  %19 = load i64, ptr %3, align 8, !tbaa !35
  %20 = call i64 @rb_check_string_type(i64 noundef %19)
  store i64 %20, ptr %6, align 8, !tbaa !35
  %21 = load i64, ptr %6, align 8, !tbaa !35
  %22 = call zeroext i1 @RB_NIL_P(i64 noundef %21) #28
  br i1 %22, label %29, label %23

23:                                               ; preds = %18
  %24 = load i64, ptr %6, align 8, !tbaa !35
  store i64 %24, ptr %3, align 8, !tbaa !35
  br label %25

25:                                               ; preds = %1, %23
  %26 = call ptr @rb_string_value_cstr(ptr noundef %3)
  store ptr %26, ptr %4, align 8, !tbaa !64
  %27 = load i64, ptr %3, align 8, !tbaa !35
  %28 = call i64 @RSTRING_LEN(i64 noundef %27) #29
  store i64 %28, ptr %5, align 8, !tbaa !35
  br label %33

29:                                               ; preds = %18
  br label %30

30:                                               ; preds = %1, %1, %29
  %31 = load i64, ptr %3, align 8, !tbaa !35
  %32 = call i32 @rb_num2int_inline(i64 noundef %31)
  store i32 %32, ptr %2, align 4
  store i32 1, ptr %8, align 4
  br label %44

33:                                               ; preds = %25, %11
  %34 = load ptr, ptr %4, align 8, !tbaa !64
  %35 = load i64, ptr %5, align 8, !tbaa !35
  %36 = call i32 @rlimit_type_by_hname(ptr noundef %34, i64 noundef %35)
  store i32 %36, ptr %7, align 4, !tbaa !34
  %37 = load i32, ptr %7, align 4, !tbaa !34
  %38 = icmp ne i32 %37, -1
  br i1 %38, label %39, label %41

39:                                               ; preds = %33
  %40 = load i32, ptr %7, align 4, !tbaa !34
  store i32 %40, ptr %2, align 4
  store i32 1, ptr %8, align 4
  br label %44

41:                                               ; preds = %33
  %42 = load i64, ptr @rb_eArgError, align 8, !tbaa !35
  %43 = load i64, ptr %3, align 8, !tbaa !35
  call void (i64, ptr, ...) @rb_raise(i64 noundef %42, ptr noundef @.str.242, i64 noundef %43) #30
  unreachable

44:                                               ; preds = %39, %30
  call void @llvm.lifetime.end.p0(i64 4, ptr %7) #27
  call void @llvm.lifetime.end.p0(i64 8, ptr %6) #27
  call void @llvm.lifetime.end.p0(i64 8, ptr %5) #27
  call void @llvm.lifetime.end.p0(i64 8, ptr %4) #27
  %45 = load i32, ptr %2, align 4
  ret i32 %45
}