; Function Attrs: nounwind sspstrong uwtable
define internal fastcc i32 @rlimit_resource_type(i64 noundef %0) unnamed_addr #1 {
  %2 = alloca i64, align 8
  store i64 %0, ptr %2, align 8, !tbaa !43
  %3 = icmp eq i64 %0, 0
  %4 = and i64 %0, 7
  %5 = icmp ne i64 %4, 0
  %6 = or i1 %3, %5
  br i1 %6, label %7, label %rb_type.exit

7:                                                ; preds = %1
  %8 = tail call i64 @llvm.fshl.i64(i64 %0, i64 %0, i64 62)
  switch i64 %8, label %9 [
    i64 0, label %rb_type.exit.thread
    i64 1, label %rb_type.exit.thread
    i64 5, label %rb_type.exit.thread
    i64 9, label %rb_type.exit.thread
  ]

9:                                                ; preds = %7
  %10 = and i64 %0, 1
  %.not.i = icmp eq i64 %10, 0
  br i1 %.not.i, label %11, label %rb_type.exit.thread16

11:                                               ; preds = %9
  %12 = and i64 %0, 254
  %13 = icmp eq i64 %12, 12
  br i1 %13, label %rb_type.exit.thread14, label %rb_type.exit.thread

rb_type.exit:                                     ; preds = %1
  %14 = inttoptr i64 %0 to ptr
  %15 = load i64, ptr %14, align 8, !tbaa !69
  %16 = trunc i64 %15 to i32
  %17 = and i32 %16, 31
  switch i32 %17, label %rb_type.exit.thread [
    i32 20, label %rb_type.exit.thread14
    i32 5, label %27
    i32 21, label %rb_type.exit.thread16
    i32 10, label %rb_type.exit.thread16
  ]

rb_type.exit.thread14:                            ; preds = %11, %rb_type.exit
  %18 = tail call i64 @rb_sym2str(i64 noundef %0) #27
  %19 = inttoptr i64 %18 to ptr
  %20 = load i64, ptr %19, align 8, !tbaa !69, !noalias !323
  %21 = and i64 %20, 8192
  %.not.i.i = icmp eq i64 %21, 0
  %22 = getelementptr inbounds nuw i8, ptr %19, i64 24
  br i1 %.not.i.i, label %RSTRING_PTR.exit, label %23

23:                                               ; preds = %rb_type.exit.thread14
  %.sroa.2.0.copyload.i = load ptr, ptr %22, align 8
  br label %RSTRING_PTR.exit

rb_type.exit.thread:                              ; preds = %7, %7, %7, %11, %7, %rb_type.exit
  %24 = tail call i64 @rb_check_string_type(i64 noundef %0) #27
  %25 = icmp eq i64 %24, 4
  br i1 %25, label %rb_type.exit.thread16, label %26

26:                                               ; preds = %rb_type.exit.thread
  store i64 %24, ptr %2, align 8, !tbaa !43
  br label %27

27:                                               ; preds = %26, %rb_type.exit
  %28 = call ptr @rb_string_value_cstr(ptr noundef nonnull %2) #27
  %29 = load i64, ptr %2, align 8, !tbaa !43
  %30 = inttoptr i64 %29 to ptr
  br label %RSTRING_PTR.exit

rb_type.exit.thread16:                            ; preds = %9, %rb_type.exit.thread, %rb_type.exit, %rb_type.exit
  %31 = and i64 %0, 1
  %.not.i11 = icmp eq i64 %31, 0
  br i1 %.not.i11, label %34, label %32

32:                                               ; preds = %rb_type.exit.thread16
  %33 = tail call i64 @rb_fix2int(i64 noundef %0) #27
  br label %rb_num2int_inline.exit

34:                                               ; preds = %rb_type.exit.thread16
  %35 = tail call i64 @rb_num2int(i64 noundef %0) #27
  br label %rb_num2int_inline.exit

rb_num2int_inline.exit:                           ; preds = %32, %34
  %.0.i12 = phi i64 [ %33, %32 ], [ %35, %34 ]
  %36 = trunc i64 %.0.i12 to i32
  br label %41

RSTRING_PTR.exit:                                 ; preds = %23, %rb_type.exit.thread14, %27
  %37 = phi i64 [ %29, %27 ], [ %0, %23 ], [ %0, %rb_type.exit.thread14 ]
  %.09 = phi ptr [ %28, %27 ], [ %.sroa.2.0.copyload.i, %23 ], [ %22, %rb_type.exit.thread14 ]
  %.pn = phi ptr [ %30, %27 ], [ %19, %23 ], [ %19, %rb_type.exit.thread14 ]
  %.08.in = getelementptr inbounds nuw i8, ptr %.pn, i64 16
  %.08 = load i64, ptr %.08.in, align 8, !tbaa !73
  %38 = call fastcc range(i32 -1, 16) i32 @rlimit_resource_name2int(ptr noundef readonly %.09, i64 noundef %.08, i32 noundef 0)
  %.not = icmp eq i32 %38, -1
  br i1 %.not, label %39, label %41

39:                                               ; preds = %RSTRING_PTR.exit
  %40 = load i64, ptr @rb_eArgError, align 8, !tbaa !43
  call void (i64, ptr, ...) @rb_raise(i64 noundef %40, ptr noundef nonnull @.str.242, i64 noundef %37) #29
  unreachable

41:                                               ; preds = %RSTRING_PTR.exit, %rb_num2int_inline.exit
  %.0 = phi i32 [ %36, %rb_num2int_inline.exit ], [ %38, %RSTRING_PTR.exit ]
  ret i32 %.0
}